
blink.elf:     file format elf32-littleriscv


Disassembly of section .text:

10000000 <_ftext>:
10000000:	0b00006f          	j	100000b0 <crt_init>
10000004:	00000013          	nop
10000008:	00000013          	nop
1000000c:	00000013          	nop
10000010:	00000013          	nop
10000014:	00000013          	nop
10000018:	00000013          	nop
1000001c:	00000013          	nop

10000020 <trap_entry>:
10000020:	fe112e23          	sw	ra,-4(sp)
10000024:	fe512c23          	sw	t0,-8(sp)
10000028:	fe612a23          	sw	t1,-12(sp)
1000002c:	fe712823          	sw	t2,-16(sp)
10000030:	fea12623          	sw	a0,-20(sp)
10000034:	feb12423          	sw	a1,-24(sp)
10000038:	fec12223          	sw	a2,-28(sp)
1000003c:	fed12023          	sw	a3,-32(sp)
10000040:	fce12e23          	sw	a4,-36(sp)
10000044:	fcf12c23          	sw	a5,-40(sp)
10000048:	fd012a23          	sw	a6,-44(sp)
1000004c:	fd112823          	sw	a7,-48(sp)
10000050:	fdc12623          	sw	t3,-52(sp)
10000054:	fdd12423          	sw	t4,-56(sp)
10000058:	fde12223          	sw	t5,-60(sp)
1000005c:	fdf12023          	sw	t6,-64(sp)
10000060:	fc010113          	addi	sp,sp,-64
10000064:	128000ef          	jal	1000018c <isr>
10000068:	03c12083          	lw	ra,60(sp)
1000006c:	03812283          	lw	t0,56(sp)
10000070:	03412303          	lw	t1,52(sp)
10000074:	03012383          	lw	t2,48(sp)
10000078:	02c12503          	lw	a0,44(sp)
1000007c:	02812583          	lw	a1,40(sp)
10000080:	02412603          	lw	a2,36(sp)
10000084:	02012683          	lw	a3,32(sp)
10000088:	01c12703          	lw	a4,28(sp)
1000008c:	01812783          	lw	a5,24(sp)
10000090:	01412803          	lw	a6,20(sp)
10000094:	01012883          	lw	a7,16(sp)
10000098:	00c12e03          	lw	t3,12(sp)
1000009c:	00812e83          	lw	t4,8(sp)
100000a0:	00412f03          	lw	t5,4(sp)
100000a4:	00012f83          	lw	t6,0(sp)
100000a8:	04010113          	addi	sp,sp,64
100000ac:	30200073          	mret

100000b0 <crt_init>:
100000b0:	40000113          	li	sp,1024
100000b4:	00000517          	auipc	a0,0x0
100000b8:	f6c50513          	addi	a0,a0,-148 # 10000020 <trap_entry>
100000bc:	30551073          	csrw	mtvec,a0

100000c0 <data_init>:
100000c0:	00000513          	li	a0,0
100000c4:	00000593          	li	a1,0
100000c8:	00001617          	auipc	a2,0x1
100000cc:	03860613          	addi	a2,a2,56 # 10001100 <_erodata>

100000d0 <data_loop>:
100000d0:	00b50c63          	beq	a0,a1,100000e8 <bss_init>
100000d4:	00062683          	lw	a3,0(a2)
100000d8:	00d52023          	sw	a3,0(a0)
100000dc:	00450513          	addi	a0,a0,4
100000e0:	00460613          	addi	a2,a2,4
100000e4:	fedff06f          	j	100000d0 <data_loop>

100000e8 <bss_init>:
100000e8:	00000513          	li	a0,0
100000ec:	00800593          	li	a1,8

100000f0 <bss_loop>:
100000f0:	00b50863          	beq	a0,a1,10000100 <bss_done>
100000f4:	00052023          	sw	zero,0(a0)
100000f8:	00450513          	addi	a0,a0,4
100000fc:	ff5ff06f          	j	100000f0 <bss_loop>

10000100 <bss_done>:
10000100:	00001537          	lui	a0,0x1
10000104:	88050513          	addi	a0,a0,-1920 # 880 <_fstack+0x480>
10000108:	30451073          	csrw	mie,a0
1000010c:	481000ef          	jal	10000d8c <main>

10000110 <infinit_loop>:
10000110:	0000006f          	j	10000110 <infinit_loop>

10000114 <flush_cpu_icache>:
10000114:	ff010113          	addi	sp,sp,-16
10000118:	00112623          	sw	ra,12(sp)
1000011c:	00812423          	sw	s0,8(sp)
10000120:	01010413          	addi	s0,sp,16
10000124:	00000013          	nop
10000128:	00c12083          	lw	ra,12(sp)
1000012c:	00812403          	lw	s0,8(sp)
10000130:	01010113          	addi	sp,sp,16
10000134:	00008067          	ret

10000138 <flush_cpu_dcache>:
10000138:	ff010113          	addi	sp,sp,-16
1000013c:	00112623          	sw	ra,12(sp)
10000140:	00812423          	sw	s0,8(sp)
10000144:	01010413          	addi	s0,sp,16
10000148:	00000013          	nop
1000014c:	00c12083          	lw	ra,12(sp)
10000150:	00812403          	lw	s0,8(sp)
10000154:	01010113          	addi	sp,sp,16
10000158:	00008067          	ret

1000015c <irq_setmask>:
1000015c:	fe010113          	addi	sp,sp,-32
10000160:	00112e23          	sw	ra,28(sp)
10000164:	00812c23          	sw	s0,24(sp)
10000168:	02010413          	addi	s0,sp,32
1000016c:	fea42623          	sw	a0,-20(s0)
10000170:	fec42783          	lw	a5,-20(s0)
10000174:	bc079073          	csrw	0xbc0,a5
10000178:	00000013          	nop
1000017c:	01c12083          	lw	ra,28(sp)
10000180:	01812403          	lw	s0,24(sp)
10000184:	02010113          	addi	sp,sp,32
10000188:	00008067          	ret

1000018c <isr>:
1000018c:	ff010113          	addi	sp,sp,-16
10000190:	00112623          	sw	ra,12(sp)
10000194:	00812423          	sw	s0,8(sp)
10000198:	01010413          	addi	s0,sp,16
1000019c:	00000513          	li	a0,0
100001a0:	fbdff0ef          	jal	1000015c <irq_setmask>
100001a4:	f00057b7          	lui	a5,0xf0005
100001a8:	01c78793          	addi	a5,a5,28 # f000501c <_erodata+0xe0003f1c>
100001ac:	0007a023          	sw	zero,0(a5)
100001b0:	f00057b7          	lui	a5,0xf0005
100001b4:	00c78793          	addi	a5,a5,12 # f000500c <_erodata+0xe0003f0c>
100001b8:	00100713          	li	a4,1
100001bc:	00e7a023          	sw	a4,0(a5)
100001c0:	f00057b7          	lui	a5,0xf0005
100001c4:	01078793          	addi	a5,a5,16 # f0005010 <_erodata+0xe0003f10>
100001c8:	0007a783          	lw	a5,0(a5)
100001cc:	00079863          	bnez	a5,100001dc <isr+0x50>
100001d0:	00100713          	li	a4,1
100001d4:	00e01023          	sh	a4,0(zero) # 0 <flag>
100001d8:	0180006f          	j	100001f0 <isr+0x64>
100001dc:	f00057b7          	lui	a5,0xf0005
100001e0:	01c78793          	addi	a5,a5,28 # f000501c <_erodata+0xe0003f1c>
100001e4:	00100713          	li	a4,1
100001e8:	00e7a023          	sw	a4,0(a5)
100001ec:	00000013          	nop
100001f0:	00c12083          	lw	ra,12(sp)
100001f4:	00812403          	lw	s0,8(sp)
100001f8:	01010113          	addi	sp,sp,16
100001fc:	00008067          	ret

10000200 <flush_cpu_icache>:
10000200:	ff010113          	addi	sp,sp,-16
10000204:	00112623          	sw	ra,12(sp)
10000208:	00812423          	sw	s0,8(sp)
1000020c:	01010413          	addi	s0,sp,16
10000210:	00000013          	nop
10000214:	00c12083          	lw	ra,12(sp)
10000218:	00812403          	lw	s0,8(sp)
1000021c:	01010113          	addi	sp,sp,16
10000220:	00008067          	ret

10000224 <flush_cpu_dcache>:
10000224:	ff010113          	addi	sp,sp,-16
10000228:	00112623          	sw	ra,12(sp)
1000022c:	00812423          	sw	s0,8(sp)
10000230:	01010413          	addi	s0,sp,16
10000234:	00000013          	nop
10000238:	00c12083          	lw	ra,12(sp)
1000023c:	00812403          	lw	s0,8(sp)
10000240:	01010113          	addi	sp,sp,16
10000244:	00008067          	ret

10000248 <putchar>:
10000248:	fe010113          	addi	sp,sp,-32
1000024c:	00112e23          	sw	ra,28(sp)
10000250:	00812c23          	sw	s0,24(sp)
10000254:	02010413          	addi	s0,sp,32
10000258:	00050793          	mv	a5,a0
1000025c:	fef407a3          	sb	a5,-17(s0)
10000260:	fef44703          	lbu	a4,-17(s0)
10000264:	00a00793          	li	a5,10
10000268:	00f71663          	bne	a4,a5,10000274 <putchar+0x2c>
1000026c:	00d00513          	li	a0,13
10000270:	fd9ff0ef          	jal	10000248 <putchar>
10000274:	00000013          	nop
10000278:	f00067b7          	lui	a5,0xf0006
1000027c:	80478793          	addi	a5,a5,-2044 # f0005804 <_erodata+0xe0004704>
10000280:	0007a703          	lw	a4,0(a5)
10000284:	00100793          	li	a5,1
10000288:	fef708e3          	beq	a4,a5,10000278 <putchar+0x30>
1000028c:	f00067b7          	lui	a5,0xf0006
10000290:	80078793          	addi	a5,a5,-2048 # f0005800 <_erodata+0xe0004700>
10000294:	fef44703          	lbu	a4,-17(s0)
10000298:	00e7a023          	sw	a4,0(a5)
1000029c:	00000013          	nop
100002a0:	01c12083          	lw	ra,28(sp)
100002a4:	01812403          	lw	s0,24(sp)
100002a8:	02010113          	addi	sp,sp,32
100002ac:	00008067          	ret

100002b0 <print>:
100002b0:	fe010113          	addi	sp,sp,-32
100002b4:	00112e23          	sw	ra,28(sp)
100002b8:	00812c23          	sw	s0,24(sp)
100002bc:	02010413          	addi	s0,sp,32
100002c0:	fea42623          	sw	a0,-20(s0)
100002c4:	01c0006f          	j	100002e0 <print+0x30>
100002c8:	fec42783          	lw	a5,-20(s0)
100002cc:	00178713          	addi	a4,a5,1
100002d0:	fee42623          	sw	a4,-20(s0)
100002d4:	0007c783          	lbu	a5,0(a5)
100002d8:	00078513          	mv	a0,a5
100002dc:	f6dff0ef          	jal	10000248 <putchar>
100002e0:	fec42783          	lw	a5,-20(s0)
100002e4:	0007c783          	lbu	a5,0(a5)
100002e8:	fe0790e3          	bnez	a5,100002c8 <print+0x18>
100002ec:	00000013          	nop
100002f0:	00000013          	nop
100002f4:	01c12083          	lw	ra,28(sp)
100002f8:	01812403          	lw	s0,24(sp)
100002fc:	02010113          	addi	sp,sp,32
10000300:	00008067          	ret

10000304 <print_hex>:
10000304:	fd010113          	addi	sp,sp,-48
10000308:	02112623          	sw	ra,44(sp)
1000030c:	02812423          	sw	s0,40(sp)
10000310:	03010413          	addi	s0,sp,48
10000314:	fca42e23          	sw	a0,-36(s0)
10000318:	fcb42c23          	sw	a1,-40(s0)
1000031c:	fd842783          	lw	a5,-40(s0)
10000320:	fff78793          	addi	a5,a5,-1
10000324:	fef42623          	sw	a5,-20(s0)
10000328:	0440006f          	j	1000036c <print_hex+0x68>
1000032c:	fec42783          	lw	a5,-20(s0)
10000330:	00279793          	slli	a5,a5,0x2
10000334:	fdc42703          	lw	a4,-36(s0)
10000338:	00f757b3          	srl	a5,a4,a5
1000033c:	00f7f793          	andi	a5,a5,15
10000340:	10001737          	lui	a4,0x10001
10000344:	00070713          	mv	a4,a4
10000348:	00f707b3          	add	a5,a4,a5
1000034c:	0007c783          	lbu	a5,0(a5)
10000350:	fef405a3          	sb	a5,-21(s0)
10000354:	feb44783          	lbu	a5,-21(s0)
10000358:	00078513          	mv	a0,a5
1000035c:	eedff0ef          	jal	10000248 <putchar>
10000360:	fec42783          	lw	a5,-20(s0)
10000364:	fff78793          	addi	a5,a5,-1
10000368:	fef42623          	sw	a5,-20(s0)
1000036c:	fec42783          	lw	a5,-20(s0)
10000370:	fa07dee3          	bgez	a5,1000032c <print_hex+0x28>
10000374:	00000013          	nop
10000378:	00000013          	nop
1000037c:	02c12083          	lw	ra,44(sp)
10000380:	02812403          	lw	s0,40(sp)
10000384:	03010113          	addi	sp,sp,48
10000388:	00008067          	ret

1000038c <print_dec>:
1000038c:	fe010113          	addi	sp,sp,-32
10000390:	00112e23          	sw	ra,28(sp)
10000394:	00812c23          	sw	s0,24(sp)
10000398:	02010413          	addi	s0,sp,32
1000039c:	fea42623          	sw	a0,-20(s0)
100003a0:	fec42703          	lw	a4,-20(s0)
100003a4:	7cf00793          	li	a5,1999
100003a8:	00e7fa63          	bgeu	a5,a4,100003bc <print_dec+0x30>
100003ac:	100017b7          	lui	a5,0x10001
100003b0:	01478513          	addi	a0,a5,20 # 10001014 <_etext+0x14>
100003b4:	efdff0ef          	jal	100002b0 <print>
100003b8:	4100006f          	j	100007c8 <print_dec+0x43c>
100003bc:	fec42703          	lw	a4,-20(s0)
100003c0:	3e700793          	li	a5,999
100003c4:	00e7fe63          	bgeu	a5,a4,100003e0 <print_dec+0x54>
100003c8:	03100513          	li	a0,49
100003cc:	e7dff0ef          	jal	10000248 <putchar>
100003d0:	fec42783          	lw	a5,-20(s0)
100003d4:	c1878793          	addi	a5,a5,-1000
100003d8:	fef42623          	sw	a5,-20(s0)
100003dc:	00c0006f          	j	100003e8 <print_dec+0x5c>
100003e0:	02000513          	li	a0,32
100003e4:	e65ff0ef          	jal	10000248 <putchar>
100003e8:	fec42703          	lw	a4,-20(s0)
100003ec:	38300793          	li	a5,899
100003f0:	00e7fe63          	bgeu	a5,a4,1000040c <print_dec+0x80>
100003f4:	03900513          	li	a0,57
100003f8:	e51ff0ef          	jal	10000248 <putchar>
100003fc:	fec42783          	lw	a5,-20(s0)
10000400:	c7c78793          	addi	a5,a5,-900
10000404:	fef42623          	sw	a5,-20(s0)
10000408:	12c0006f          	j	10000534 <print_dec+0x1a8>
1000040c:	fec42703          	lw	a4,-20(s0)
10000410:	31f00793          	li	a5,799
10000414:	00e7fe63          	bgeu	a5,a4,10000430 <print_dec+0xa4>
10000418:	03800513          	li	a0,56
1000041c:	e2dff0ef          	jal	10000248 <putchar>
10000420:	fec42783          	lw	a5,-20(s0)
10000424:	ce078793          	addi	a5,a5,-800
10000428:	fef42623          	sw	a5,-20(s0)
1000042c:	1080006f          	j	10000534 <print_dec+0x1a8>
10000430:	fec42703          	lw	a4,-20(s0)
10000434:	2bb00793          	li	a5,699
10000438:	00e7fe63          	bgeu	a5,a4,10000454 <print_dec+0xc8>
1000043c:	03700513          	li	a0,55
10000440:	e09ff0ef          	jal	10000248 <putchar>
10000444:	fec42783          	lw	a5,-20(s0)
10000448:	d4478793          	addi	a5,a5,-700
1000044c:	fef42623          	sw	a5,-20(s0)
10000450:	0e40006f          	j	10000534 <print_dec+0x1a8>
10000454:	fec42703          	lw	a4,-20(s0)
10000458:	25700793          	li	a5,599
1000045c:	00e7fe63          	bgeu	a5,a4,10000478 <print_dec+0xec>
10000460:	03600513          	li	a0,54
10000464:	de5ff0ef          	jal	10000248 <putchar>
10000468:	fec42783          	lw	a5,-20(s0)
1000046c:	da878793          	addi	a5,a5,-600
10000470:	fef42623          	sw	a5,-20(s0)
10000474:	0c00006f          	j	10000534 <print_dec+0x1a8>
10000478:	fec42703          	lw	a4,-20(s0)
1000047c:	1f300793          	li	a5,499
10000480:	00e7fe63          	bgeu	a5,a4,1000049c <print_dec+0x110>
10000484:	03500513          	li	a0,53
10000488:	dc1ff0ef          	jal	10000248 <putchar>
1000048c:	fec42783          	lw	a5,-20(s0)
10000490:	e0c78793          	addi	a5,a5,-500
10000494:	fef42623          	sw	a5,-20(s0)
10000498:	09c0006f          	j	10000534 <print_dec+0x1a8>
1000049c:	fec42703          	lw	a4,-20(s0)
100004a0:	18f00793          	li	a5,399
100004a4:	00e7fe63          	bgeu	a5,a4,100004c0 <print_dec+0x134>
100004a8:	03400513          	li	a0,52
100004ac:	d9dff0ef          	jal	10000248 <putchar>
100004b0:	fec42783          	lw	a5,-20(s0)
100004b4:	e7078793          	addi	a5,a5,-400
100004b8:	fef42623          	sw	a5,-20(s0)
100004bc:	0780006f          	j	10000534 <print_dec+0x1a8>
100004c0:	fec42703          	lw	a4,-20(s0)
100004c4:	12b00793          	li	a5,299
100004c8:	00e7fe63          	bgeu	a5,a4,100004e4 <print_dec+0x158>
100004cc:	03300513          	li	a0,51
100004d0:	d79ff0ef          	jal	10000248 <putchar>
100004d4:	fec42783          	lw	a5,-20(s0)
100004d8:	ed478793          	addi	a5,a5,-300
100004dc:	fef42623          	sw	a5,-20(s0)
100004e0:	0540006f          	j	10000534 <print_dec+0x1a8>
100004e4:	fec42703          	lw	a4,-20(s0)
100004e8:	0c700793          	li	a5,199
100004ec:	00e7fe63          	bgeu	a5,a4,10000508 <print_dec+0x17c>
100004f0:	03200513          	li	a0,50
100004f4:	d55ff0ef          	jal	10000248 <putchar>
100004f8:	fec42783          	lw	a5,-20(s0)
100004fc:	f3878793          	addi	a5,a5,-200
10000500:	fef42623          	sw	a5,-20(s0)
10000504:	0300006f          	j	10000534 <print_dec+0x1a8>
10000508:	fec42703          	lw	a4,-20(s0)
1000050c:	06300793          	li	a5,99
10000510:	00e7fe63          	bgeu	a5,a4,1000052c <print_dec+0x1a0>
10000514:	03100513          	li	a0,49
10000518:	d31ff0ef          	jal	10000248 <putchar>
1000051c:	fec42783          	lw	a5,-20(s0)
10000520:	f9c78793          	addi	a5,a5,-100
10000524:	fef42623          	sw	a5,-20(s0)
10000528:	00c0006f          	j	10000534 <print_dec+0x1a8>
1000052c:	03000513          	li	a0,48
10000530:	d19ff0ef          	jal	10000248 <putchar>
10000534:	fec42703          	lw	a4,-20(s0)
10000538:	05900793          	li	a5,89
1000053c:	00e7fe63          	bgeu	a5,a4,10000558 <print_dec+0x1cc>
10000540:	03900513          	li	a0,57
10000544:	d05ff0ef          	jal	10000248 <putchar>
10000548:	fec42783          	lw	a5,-20(s0)
1000054c:	fa678793          	addi	a5,a5,-90
10000550:	fef42623          	sw	a5,-20(s0)
10000554:	12c0006f          	j	10000680 <print_dec+0x2f4>
10000558:	fec42703          	lw	a4,-20(s0)
1000055c:	04f00793          	li	a5,79
10000560:	00e7fe63          	bgeu	a5,a4,1000057c <print_dec+0x1f0>
10000564:	03800513          	li	a0,56
10000568:	ce1ff0ef          	jal	10000248 <putchar>
1000056c:	fec42783          	lw	a5,-20(s0)
10000570:	fb078793          	addi	a5,a5,-80
10000574:	fef42623          	sw	a5,-20(s0)
10000578:	1080006f          	j	10000680 <print_dec+0x2f4>
1000057c:	fec42703          	lw	a4,-20(s0)
10000580:	04500793          	li	a5,69
10000584:	00e7fe63          	bgeu	a5,a4,100005a0 <print_dec+0x214>
10000588:	03700513          	li	a0,55
1000058c:	cbdff0ef          	jal	10000248 <putchar>
10000590:	fec42783          	lw	a5,-20(s0)
10000594:	fba78793          	addi	a5,a5,-70
10000598:	fef42623          	sw	a5,-20(s0)
1000059c:	0e40006f          	j	10000680 <print_dec+0x2f4>
100005a0:	fec42703          	lw	a4,-20(s0)
100005a4:	03b00793          	li	a5,59
100005a8:	00e7fe63          	bgeu	a5,a4,100005c4 <print_dec+0x238>
100005ac:	03600513          	li	a0,54
100005b0:	c99ff0ef          	jal	10000248 <putchar>
100005b4:	fec42783          	lw	a5,-20(s0)
100005b8:	fc478793          	addi	a5,a5,-60
100005bc:	fef42623          	sw	a5,-20(s0)
100005c0:	0c00006f          	j	10000680 <print_dec+0x2f4>
100005c4:	fec42703          	lw	a4,-20(s0)
100005c8:	03100793          	li	a5,49
100005cc:	00e7fe63          	bgeu	a5,a4,100005e8 <print_dec+0x25c>
100005d0:	03500513          	li	a0,53
100005d4:	c75ff0ef          	jal	10000248 <putchar>
100005d8:	fec42783          	lw	a5,-20(s0)
100005dc:	fce78793          	addi	a5,a5,-50
100005e0:	fef42623          	sw	a5,-20(s0)
100005e4:	09c0006f          	j	10000680 <print_dec+0x2f4>
100005e8:	fec42703          	lw	a4,-20(s0)
100005ec:	02700793          	li	a5,39
100005f0:	00e7fe63          	bgeu	a5,a4,1000060c <print_dec+0x280>
100005f4:	03400513          	li	a0,52
100005f8:	c51ff0ef          	jal	10000248 <putchar>
100005fc:	fec42783          	lw	a5,-20(s0)
10000600:	fd878793          	addi	a5,a5,-40
10000604:	fef42623          	sw	a5,-20(s0)
10000608:	0780006f          	j	10000680 <print_dec+0x2f4>
1000060c:	fec42703          	lw	a4,-20(s0)
10000610:	01d00793          	li	a5,29
10000614:	00e7fe63          	bgeu	a5,a4,10000630 <print_dec+0x2a4>
10000618:	03300513          	li	a0,51
1000061c:	c2dff0ef          	jal	10000248 <putchar>
10000620:	fec42783          	lw	a5,-20(s0)
10000624:	fe278793          	addi	a5,a5,-30
10000628:	fef42623          	sw	a5,-20(s0)
1000062c:	0540006f          	j	10000680 <print_dec+0x2f4>
10000630:	fec42703          	lw	a4,-20(s0)
10000634:	01300793          	li	a5,19
10000638:	00e7fe63          	bgeu	a5,a4,10000654 <print_dec+0x2c8>
1000063c:	03200513          	li	a0,50
10000640:	c09ff0ef          	jal	10000248 <putchar>
10000644:	fec42783          	lw	a5,-20(s0)
10000648:	fec78793          	addi	a5,a5,-20
1000064c:	fef42623          	sw	a5,-20(s0)
10000650:	0300006f          	j	10000680 <print_dec+0x2f4>
10000654:	fec42703          	lw	a4,-20(s0)
10000658:	00900793          	li	a5,9
1000065c:	00e7fe63          	bgeu	a5,a4,10000678 <print_dec+0x2ec>
10000660:	03100513          	li	a0,49
10000664:	be5ff0ef          	jal	10000248 <putchar>
10000668:	fec42783          	lw	a5,-20(s0)
1000066c:	ff678793          	addi	a5,a5,-10
10000670:	fef42623          	sw	a5,-20(s0)
10000674:	00c0006f          	j	10000680 <print_dec+0x2f4>
10000678:	03000513          	li	a0,48
1000067c:	bcdff0ef          	jal	10000248 <putchar>
10000680:	fec42703          	lw	a4,-20(s0)
10000684:	00800793          	li	a5,8
10000688:	00e7fe63          	bgeu	a5,a4,100006a4 <print_dec+0x318>
1000068c:	03900513          	li	a0,57
10000690:	bb9ff0ef          	jal	10000248 <putchar>
10000694:	fec42783          	lw	a5,-20(s0)
10000698:	ff778793          	addi	a5,a5,-9
1000069c:	fef42623          	sw	a5,-20(s0)
100006a0:	1280006f          	j	100007c8 <print_dec+0x43c>
100006a4:	fec42703          	lw	a4,-20(s0)
100006a8:	00700793          	li	a5,7
100006ac:	00e7fe63          	bgeu	a5,a4,100006c8 <print_dec+0x33c>
100006b0:	03800513          	li	a0,56
100006b4:	b95ff0ef          	jal	10000248 <putchar>
100006b8:	fec42783          	lw	a5,-20(s0)
100006bc:	ff878793          	addi	a5,a5,-8
100006c0:	fef42623          	sw	a5,-20(s0)
100006c4:	1040006f          	j	100007c8 <print_dec+0x43c>
100006c8:	fec42703          	lw	a4,-20(s0)
100006cc:	00600793          	li	a5,6
100006d0:	00e7fe63          	bgeu	a5,a4,100006ec <print_dec+0x360>
100006d4:	03700513          	li	a0,55
100006d8:	b71ff0ef          	jal	10000248 <putchar>
100006dc:	fec42783          	lw	a5,-20(s0)
100006e0:	ff978793          	addi	a5,a5,-7
100006e4:	fef42623          	sw	a5,-20(s0)
100006e8:	0e00006f          	j	100007c8 <print_dec+0x43c>
100006ec:	fec42703          	lw	a4,-20(s0)
100006f0:	00500793          	li	a5,5
100006f4:	00e7fe63          	bgeu	a5,a4,10000710 <print_dec+0x384>
100006f8:	03600513          	li	a0,54
100006fc:	b4dff0ef          	jal	10000248 <putchar>
10000700:	fec42783          	lw	a5,-20(s0)
10000704:	ffa78793          	addi	a5,a5,-6
10000708:	fef42623          	sw	a5,-20(s0)
1000070c:	0bc0006f          	j	100007c8 <print_dec+0x43c>
10000710:	fec42703          	lw	a4,-20(s0)
10000714:	00400793          	li	a5,4
10000718:	00e7fe63          	bgeu	a5,a4,10000734 <print_dec+0x3a8>
1000071c:	03500513          	li	a0,53
10000720:	b29ff0ef          	jal	10000248 <putchar>
10000724:	fec42783          	lw	a5,-20(s0)
10000728:	ffb78793          	addi	a5,a5,-5
1000072c:	fef42623          	sw	a5,-20(s0)
10000730:	0980006f          	j	100007c8 <print_dec+0x43c>
10000734:	fec42703          	lw	a4,-20(s0)
10000738:	00300793          	li	a5,3
1000073c:	00e7fe63          	bgeu	a5,a4,10000758 <print_dec+0x3cc>
10000740:	03400513          	li	a0,52
10000744:	b05ff0ef          	jal	10000248 <putchar>
10000748:	fec42783          	lw	a5,-20(s0)
1000074c:	ffc78793          	addi	a5,a5,-4
10000750:	fef42623          	sw	a5,-20(s0)
10000754:	0740006f          	j	100007c8 <print_dec+0x43c>
10000758:	fec42703          	lw	a4,-20(s0)
1000075c:	00200793          	li	a5,2
10000760:	00e7fe63          	bgeu	a5,a4,1000077c <print_dec+0x3f0>
10000764:	03300513          	li	a0,51
10000768:	ae1ff0ef          	jal	10000248 <putchar>
1000076c:	fec42783          	lw	a5,-20(s0)
10000770:	ffd78793          	addi	a5,a5,-3
10000774:	fef42623          	sw	a5,-20(s0)
10000778:	0500006f          	j	100007c8 <print_dec+0x43c>
1000077c:	fec42703          	lw	a4,-20(s0)
10000780:	00100793          	li	a5,1
10000784:	00e7fe63          	bgeu	a5,a4,100007a0 <print_dec+0x414>
10000788:	03200513          	li	a0,50
1000078c:	abdff0ef          	jal	10000248 <putchar>
10000790:	fec42783          	lw	a5,-20(s0)
10000794:	ffe78793          	addi	a5,a5,-2
10000798:	fef42623          	sw	a5,-20(s0)
1000079c:	02c0006f          	j	100007c8 <print_dec+0x43c>
100007a0:	fec42783          	lw	a5,-20(s0)
100007a4:	00078e63          	beqz	a5,100007c0 <print_dec+0x434>
100007a8:	03100513          	li	a0,49
100007ac:	a9dff0ef          	jal	10000248 <putchar>
100007b0:	fec42783          	lw	a5,-20(s0)
100007b4:	fff78793          	addi	a5,a5,-1
100007b8:	fef42623          	sw	a5,-20(s0)
100007bc:	00c0006f          	j	100007c8 <print_dec+0x43c>
100007c0:	03000513          	li	a0,48
100007c4:	a85ff0ef          	jal	10000248 <putchar>
100007c8:	01c12083          	lw	ra,28(sp)
100007cc:	01812403          	lw	s0,24(sp)
100007d0:	02010113          	addi	sp,sp,32
100007d4:	00008067          	ret

100007d8 <print_digit>:
100007d8:	fe010113          	addi	sp,sp,-32
100007dc:	00112e23          	sw	ra,28(sp)
100007e0:	00812c23          	sw	s0,24(sp)
100007e4:	02010413          	addi	s0,sp,32
100007e8:	fea42623          	sw	a0,-20(s0)
100007ec:	fec42783          	lw	a5,-20(s0)
100007f0:	00f7f793          	andi	a5,a5,15
100007f4:	fef42623          	sw	a5,-20(s0)
100007f8:	fec42703          	lw	a4,-20(s0)
100007fc:	00900793          	li	a5,9
10000800:	00f71863          	bne	a4,a5,10000810 <print_digit+0x38>
10000804:	03900513          	li	a0,57
10000808:	a41ff0ef          	jal	10000248 <putchar>
1000080c:	1700006f          	j	1000097c <print_digit+0x1a4>
10000810:	fec42703          	lw	a4,-20(s0)
10000814:	00800793          	li	a5,8
10000818:	00f71863          	bne	a4,a5,10000828 <print_digit+0x50>
1000081c:	03800513          	li	a0,56
10000820:	a29ff0ef          	jal	10000248 <putchar>
10000824:	1580006f          	j	1000097c <print_digit+0x1a4>
10000828:	fec42703          	lw	a4,-20(s0)
1000082c:	00700793          	li	a5,7
10000830:	00f71863          	bne	a4,a5,10000840 <print_digit+0x68>
10000834:	03700513          	li	a0,55
10000838:	a11ff0ef          	jal	10000248 <putchar>
1000083c:	1400006f          	j	1000097c <print_digit+0x1a4>
10000840:	fec42703          	lw	a4,-20(s0)
10000844:	00600793          	li	a5,6
10000848:	00f71863          	bne	a4,a5,10000858 <print_digit+0x80>
1000084c:	03600513          	li	a0,54
10000850:	9f9ff0ef          	jal	10000248 <putchar>
10000854:	1280006f          	j	1000097c <print_digit+0x1a4>
10000858:	fec42703          	lw	a4,-20(s0)
1000085c:	00500793          	li	a5,5
10000860:	00f71863          	bne	a4,a5,10000870 <print_digit+0x98>
10000864:	03500513          	li	a0,53
10000868:	9e1ff0ef          	jal	10000248 <putchar>
1000086c:	1100006f          	j	1000097c <print_digit+0x1a4>
10000870:	fec42703          	lw	a4,-20(s0)
10000874:	00400793          	li	a5,4
10000878:	00f71863          	bne	a4,a5,10000888 <print_digit+0xb0>
1000087c:	03400513          	li	a0,52
10000880:	9c9ff0ef          	jal	10000248 <putchar>
10000884:	0f80006f          	j	1000097c <print_digit+0x1a4>
10000888:	fec42703          	lw	a4,-20(s0)
1000088c:	00300793          	li	a5,3
10000890:	00f71863          	bne	a4,a5,100008a0 <print_digit+0xc8>
10000894:	03300513          	li	a0,51
10000898:	9b1ff0ef          	jal	10000248 <putchar>
1000089c:	0e00006f          	j	1000097c <print_digit+0x1a4>
100008a0:	fec42703          	lw	a4,-20(s0)
100008a4:	00200793          	li	a5,2
100008a8:	00f71863          	bne	a4,a5,100008b8 <print_digit+0xe0>
100008ac:	03200513          	li	a0,50
100008b0:	999ff0ef          	jal	10000248 <putchar>
100008b4:	0c80006f          	j	1000097c <print_digit+0x1a4>
100008b8:	fec42703          	lw	a4,-20(s0)
100008bc:	00100793          	li	a5,1
100008c0:	00f71863          	bne	a4,a5,100008d0 <print_digit+0xf8>
100008c4:	03100513          	li	a0,49
100008c8:	981ff0ef          	jal	10000248 <putchar>
100008cc:	0b00006f          	j	1000097c <print_digit+0x1a4>
100008d0:	fec42783          	lw	a5,-20(s0)
100008d4:	00079863          	bnez	a5,100008e4 <print_digit+0x10c>
100008d8:	03000513          	li	a0,48
100008dc:	96dff0ef          	jal	10000248 <putchar>
100008e0:	09c0006f          	j	1000097c <print_digit+0x1a4>
100008e4:	fec42703          	lw	a4,-20(s0)
100008e8:	00a00793          	li	a5,10
100008ec:	00f71863          	bne	a4,a5,100008fc <print_digit+0x124>
100008f0:	06100513          	li	a0,97
100008f4:	955ff0ef          	jal	10000248 <putchar>
100008f8:	0840006f          	j	1000097c <print_digit+0x1a4>
100008fc:	fec42703          	lw	a4,-20(s0)
10000900:	00b00793          	li	a5,11
10000904:	00f71863          	bne	a4,a5,10000914 <print_digit+0x13c>
10000908:	06200513          	li	a0,98
1000090c:	93dff0ef          	jal	10000248 <putchar>
10000910:	06c0006f          	j	1000097c <print_digit+0x1a4>
10000914:	fec42703          	lw	a4,-20(s0)
10000918:	00c00793          	li	a5,12
1000091c:	00f71863          	bne	a4,a5,1000092c <print_digit+0x154>
10000920:	06300513          	li	a0,99
10000924:	925ff0ef          	jal	10000248 <putchar>
10000928:	0540006f          	j	1000097c <print_digit+0x1a4>
1000092c:	fec42703          	lw	a4,-20(s0)
10000930:	00d00793          	li	a5,13
10000934:	00f71863          	bne	a4,a5,10000944 <print_digit+0x16c>
10000938:	06400513          	li	a0,100
1000093c:	90dff0ef          	jal	10000248 <putchar>
10000940:	03c0006f          	j	1000097c <print_digit+0x1a4>
10000944:	fec42703          	lw	a4,-20(s0)
10000948:	00e00793          	li	a5,14
1000094c:	00f71863          	bne	a4,a5,1000095c <print_digit+0x184>
10000950:	06500513          	li	a0,101
10000954:	8f5ff0ef          	jal	10000248 <putchar>
10000958:	0240006f          	j	1000097c <print_digit+0x1a4>
1000095c:	fec42703          	lw	a4,-20(s0)
10000960:	00f00793          	li	a5,15
10000964:	00f71863          	bne	a4,a5,10000974 <print_digit+0x19c>
10000968:	06600513          	li	a0,102
1000096c:	8ddff0ef          	jal	10000248 <putchar>
10000970:	00c0006f          	j	1000097c <print_digit+0x1a4>
10000974:	02a00513          	li	a0,42
10000978:	8d1ff0ef          	jal	10000248 <putchar>
1000097c:	00000013          	nop
10000980:	01c12083          	lw	ra,28(sp)
10000984:	01812403          	lw	s0,24(sp)
10000988:	02010113          	addi	sp,sp,32
1000098c:	00008067          	ret

10000990 <flush_cpu_icache>:
10000990:	ff010113          	addi	sp,sp,-16
10000994:	00112623          	sw	ra,12(sp)
10000998:	00812423          	sw	s0,8(sp)
1000099c:	01010413          	addi	s0,sp,16
100009a0:	00000013          	nop
100009a4:	00c12083          	lw	ra,12(sp)
100009a8:	00812403          	lw	s0,8(sp)
100009ac:	01010113          	addi	sp,sp,16
100009b0:	00008067          	ret

100009b4 <flush_cpu_dcache>:
100009b4:	ff010113          	addi	sp,sp,-16
100009b8:	00112623          	sw	ra,12(sp)
100009bc:	00812423          	sw	s0,8(sp)
100009c0:	01010413          	addi	s0,sp,16
100009c4:	00000013          	nop
100009c8:	00c12083          	lw	ra,12(sp)
100009cc:	00812403          	lw	s0,8(sp)
100009d0:	01010113          	addi	sp,sp,16
100009d4:	00008067          	ret

100009d8 <configure_io>:
100009d8:	ff010113          	addi	sp,sp,-16
100009dc:	00112623          	sw	ra,12(sp)
100009e0:	00812423          	sw	s0,8(sp)
100009e4:	01010413          	addi	s0,sp,16
100009e8:	260007b7          	lui	a5,0x26000
100009ec:	02478793          	addi	a5,a5,36 # 26000024 <_erodata+0x15ffef24>
100009f0:	00b00713          	li	a4,11
100009f4:	00e7a023          	sw	a4,0(a5)
100009f8:	260007b7          	lui	a5,0x26000
100009fc:	02878793          	addi	a5,a5,40 # 26000028 <_erodata+0x15ffef28>
10000a00:	00002737          	lui	a4,0x2
10000a04:	80970713          	addi	a4,a4,-2039 # 1809 <_fstack+0x1409>
10000a08:	00e7a023          	sw	a4,0(a5)
10000a0c:	260007b7          	lui	a5,0x26000
10000a10:	02c78793          	addi	a5,a5,44 # 2600002c <_erodata+0x15ffef2c>
10000a14:	40300713          	li	a4,1027
10000a18:	00e7a023          	sw	a4,0(a5)
10000a1c:	260007b7          	lui	a5,0x26000
10000a20:	03078793          	addi	a5,a5,48 # 26000030 <_erodata+0x15ffef30>
10000a24:	40300713          	li	a4,1027
10000a28:	00e7a023          	sw	a4,0(a5)
10000a2c:	260007b7          	lui	a5,0x26000
10000a30:	03478793          	addi	a5,a5,52 # 26000034 <_erodata+0x15ffef34>
10000a34:	40300713          	li	a4,1027
10000a38:	00e7a023          	sw	a4,0(a5)
10000a3c:	260007b7          	lui	a5,0x26000
10000a40:	03878793          	addi	a5,a5,56 # 26000038 <_erodata+0x15ffef38>
10000a44:	40300713          	li	a4,1027
10000a48:	00e7a023          	sw	a4,0(a5)
10000a4c:	260007b7          	lui	a5,0x26000
10000a50:	03c78793          	addi	a5,a5,60 # 2600003c <_erodata+0x15ffef3c>
10000a54:	00002737          	lui	a4,0x2
10000a58:	80970713          	addi	a4,a4,-2039 # 1809 <_fstack+0x1409>
10000a5c:	00e7a023          	sw	a4,0(a5)
10000a60:	260007b7          	lui	a5,0x26000
10000a64:	04078793          	addi	a5,a5,64 # 26000040 <_erodata+0x15ffef40>
10000a68:	00002737          	lui	a4,0x2
10000a6c:	80970713          	addi	a4,a4,-2039 # 1809 <_fstack+0x1409>
10000a70:	00e7a023          	sw	a4,0(a5)
10000a74:	260007b7          	lui	a5,0x26000
10000a78:	04478793          	addi	a5,a5,68 # 26000044 <_erodata+0x15ffef44>
10000a7c:	00002737          	lui	a4,0x2
10000a80:	80970713          	addi	a4,a4,-2039 # 1809 <_fstack+0x1409>
10000a84:	00e7a023          	sw	a4,0(a5)
10000a88:	260007b7          	lui	a5,0x26000
10000a8c:	04878793          	addi	a5,a5,72 # 26000048 <_erodata+0x15ffef48>
10000a90:	00002737          	lui	a4,0x2
10000a94:	80970713          	addi	a4,a4,-2039 # 1809 <_fstack+0x1409>
10000a98:	00e7a023          	sw	a4,0(a5)
10000a9c:	260007b7          	lui	a5,0x26000
10000aa0:	04c78793          	addi	a5,a5,76 # 2600004c <_erodata+0x15ffef4c>
10000aa4:	00002737          	lui	a4,0x2
10000aa8:	80970713          	addi	a4,a4,-2039 # 1809 <_fstack+0x1409>
10000aac:	00e7a023          	sw	a4,0(a5)
10000ab0:	260007b7          	lui	a5,0x26000
10000ab4:	05078793          	addi	a5,a5,80 # 26000050 <_erodata+0x15ffef50>
10000ab8:	00002737          	lui	a4,0x2
10000abc:	80970713          	addi	a4,a4,-2039 # 1809 <_fstack+0x1409>
10000ac0:	00e7a023          	sw	a4,0(a5)
10000ac4:	260007b7          	lui	a5,0x26000
10000ac8:	05478793          	addi	a5,a5,84 # 26000054 <_erodata+0x15ffef54>
10000acc:	00002737          	lui	a4,0x2
10000ad0:	80970713          	addi	a4,a4,-2039 # 1809 <_fstack+0x1409>
10000ad4:	00e7a023          	sw	a4,0(a5)
10000ad8:	260007b7          	lui	a5,0x26000
10000adc:	05878793          	addi	a5,a5,88 # 26000058 <_erodata+0x15ffef58>
10000ae0:	00002737          	lui	a4,0x2
10000ae4:	80970713          	addi	a4,a4,-2039 # 1809 <_fstack+0x1409>
10000ae8:	00e7a023          	sw	a4,0(a5)
10000aec:	260007b7          	lui	a5,0x26000
10000af0:	05c78793          	addi	a5,a5,92 # 2600005c <_erodata+0x15ffef5c>
10000af4:	00002737          	lui	a4,0x2
10000af8:	80970713          	addi	a4,a4,-2039 # 1809 <_fstack+0x1409>
10000afc:	00e7a023          	sw	a4,0(a5)
10000b00:	260007b7          	lui	a5,0x26000
10000b04:	06078793          	addi	a5,a5,96 # 26000060 <_erodata+0x15ffef60>
10000b08:	00002737          	lui	a4,0x2
10000b0c:	80970713          	addi	a4,a4,-2039 # 1809 <_fstack+0x1409>
10000b10:	00e7a023          	sw	a4,0(a5)
10000b14:	260007b7          	lui	a5,0x26000
10000b18:	06478793          	addi	a5,a5,100 # 26000064 <_erodata+0x15ffef64>
10000b1c:	00002737          	lui	a4,0x2
10000b20:	80970713          	addi	a4,a4,-2039 # 1809 <_fstack+0x1409>
10000b24:	00e7a023          	sw	a4,0(a5)
10000b28:	260007b7          	lui	a5,0x26000
10000b2c:	06878793          	addi	a5,a5,104 # 26000068 <_erodata+0x15ffef68>
10000b30:	00002737          	lui	a4,0x2
10000b34:	80970713          	addi	a4,a4,-2039 # 1809 <_fstack+0x1409>
10000b38:	00e7a023          	sw	a4,0(a5)
10000b3c:	260007b7          	lui	a5,0x26000
10000b40:	06c78793          	addi	a5,a5,108 # 2600006c <_erodata+0x15ffef6c>
10000b44:	00002737          	lui	a4,0x2
10000b48:	80970713          	addi	a4,a4,-2039 # 1809 <_fstack+0x1409>
10000b4c:	00e7a023          	sw	a4,0(a5)
10000b50:	260007b7          	lui	a5,0x26000
10000b54:	07078793          	addi	a5,a5,112 # 26000070 <_erodata+0x15ffef70>
10000b58:	00002737          	lui	a4,0x2
10000b5c:	80970713          	addi	a4,a4,-2039 # 1809 <_fstack+0x1409>
10000b60:	00e7a023          	sw	a4,0(a5)
10000b64:	260007b7          	lui	a5,0x26000
10000b68:	07478793          	addi	a5,a5,116 # 26000074 <_erodata+0x15ffef74>
10000b6c:	00002737          	lui	a4,0x2
10000b70:	80970713          	addi	a4,a4,-2039 # 1809 <_fstack+0x1409>
10000b74:	00e7a023          	sw	a4,0(a5)
10000b78:	260007b7          	lui	a5,0x26000
10000b7c:	07878793          	addi	a5,a5,120 # 26000078 <_erodata+0x15ffef78>
10000b80:	00002737          	lui	a4,0x2
10000b84:	80970713          	addi	a4,a4,-2039 # 1809 <_fstack+0x1409>
10000b88:	00e7a023          	sw	a4,0(a5)
10000b8c:	260007b7          	lui	a5,0x26000
10000b90:	07c78793          	addi	a5,a5,124 # 2600007c <_erodata+0x15ffef7c>
10000b94:	00002737          	lui	a4,0x2
10000b98:	80970713          	addi	a4,a4,-2039 # 1809 <_fstack+0x1409>
10000b9c:	00e7a023          	sw	a4,0(a5)
10000ba0:	260007b7          	lui	a5,0x26000
10000ba4:	08078793          	addi	a5,a5,128 # 26000080 <_erodata+0x15ffef80>
10000ba8:	00002737          	lui	a4,0x2
10000bac:	80970713          	addi	a4,a4,-2039 # 1809 <_fstack+0x1409>
10000bb0:	00e7a023          	sw	a4,0(a5)
10000bb4:	260007b7          	lui	a5,0x26000
10000bb8:	08478793          	addi	a5,a5,132 # 26000084 <_erodata+0x15ffef84>
10000bbc:	00002737          	lui	a4,0x2
10000bc0:	80970713          	addi	a4,a4,-2039 # 1809 <_fstack+0x1409>
10000bc4:	00e7a023          	sw	a4,0(a5)
10000bc8:	260007b7          	lui	a5,0x26000
10000bcc:	08878793          	addi	a5,a5,136 # 26000088 <_erodata+0x15ffef88>
10000bd0:	00002737          	lui	a4,0x2
10000bd4:	80970713          	addi	a4,a4,-2039 # 1809 <_fstack+0x1409>
10000bd8:	00e7a023          	sw	a4,0(a5)
10000bdc:	260007b7          	lui	a5,0x26000
10000be0:	08c78793          	addi	a5,a5,140 # 2600008c <_erodata+0x15ffef8c>
10000be4:	00002737          	lui	a4,0x2
10000be8:	80970713          	addi	a4,a4,-2039 # 1809 <_fstack+0x1409>
10000bec:	00e7a023          	sw	a4,0(a5)
10000bf0:	260007b7          	lui	a5,0x26000
10000bf4:	09078793          	addi	a5,a5,144 # 26000090 <_erodata+0x15ffef90>
10000bf8:	00002737          	lui	a4,0x2
10000bfc:	80970713          	addi	a4,a4,-2039 # 1809 <_fstack+0x1409>
10000c00:	00e7a023          	sw	a4,0(a5)
10000c04:	260007b7          	lui	a5,0x26000
10000c08:	09478793          	addi	a5,a5,148 # 26000094 <_erodata+0x15ffef94>
10000c0c:	00002737          	lui	a4,0x2
10000c10:	80970713          	addi	a4,a4,-2039 # 1809 <_fstack+0x1409>
10000c14:	00e7a023          	sw	a4,0(a5)
10000c18:	260007b7          	lui	a5,0x26000
10000c1c:	09878793          	addi	a5,a5,152 # 26000098 <_erodata+0x15ffef98>
10000c20:	00002737          	lui	a4,0x2
10000c24:	80970713          	addi	a4,a4,-2039 # 1809 <_fstack+0x1409>
10000c28:	00e7a023          	sw	a4,0(a5)
10000c2c:	260007b7          	lui	a5,0x26000
10000c30:	09c78793          	addi	a5,a5,156 # 2600009c <_erodata+0x15ffef9c>
10000c34:	00002737          	lui	a4,0x2
10000c38:	80970713          	addi	a4,a4,-2039 # 1809 <_fstack+0x1409>
10000c3c:	00e7a023          	sw	a4,0(a5)
10000c40:	260007b7          	lui	a5,0x26000
10000c44:	0a078793          	addi	a5,a5,160 # 260000a0 <_erodata+0x15ffefa0>
10000c48:	00002737          	lui	a4,0x2
10000c4c:	80970713          	addi	a4,a4,-2039 # 1809 <_fstack+0x1409>
10000c50:	00e7a023          	sw	a4,0(a5)
10000c54:	260007b7          	lui	a5,0x26000
10000c58:	0a478793          	addi	a5,a5,164 # 260000a4 <_erodata+0x15ffefa4>
10000c5c:	00002737          	lui	a4,0x2
10000c60:	80970713          	addi	a4,a4,-2039 # 1809 <_fstack+0x1409>
10000c64:	00e7a023          	sw	a4,0(a5)
10000c68:	260007b7          	lui	a5,0x26000
10000c6c:	0a878793          	addi	a5,a5,168 # 260000a8 <_erodata+0x15ffefa8>
10000c70:	00002737          	lui	a4,0x2
10000c74:	80970713          	addi	a4,a4,-2039 # 1809 <_fstack+0x1409>
10000c78:	00e7a023          	sw	a4,0(a5)
10000c7c:	260007b7          	lui	a5,0x26000
10000c80:	0ac78793          	addi	a5,a5,172 # 260000ac <_erodata+0x15ffefac>
10000c84:	00002737          	lui	a4,0x2
10000c88:	80970713          	addi	a4,a4,-2039 # 1809 <_fstack+0x1409>
10000c8c:	00e7a023          	sw	a4,0(a5)
10000c90:	260007b7          	lui	a5,0x26000
10000c94:	0b078793          	addi	a5,a5,176 # 260000b0 <_erodata+0x15ffefb0>
10000c98:	00002737          	lui	a4,0x2
10000c9c:	80970713          	addi	a4,a4,-2039 # 1809 <_fstack+0x1409>
10000ca0:	00e7a023          	sw	a4,0(a5)
10000ca4:	260007b7          	lui	a5,0x26000
10000ca8:	0b478793          	addi	a5,a5,180 # 260000b4 <_erodata+0x15ffefb4>
10000cac:	00002737          	lui	a4,0x2
10000cb0:	80970713          	addi	a4,a4,-2039 # 1809 <_fstack+0x1409>
10000cb4:	00e7a023          	sw	a4,0(a5)
10000cb8:	260007b7          	lui	a5,0x26000
10000cbc:	0b878793          	addi	a5,a5,184 # 260000b8 <_erodata+0x15ffefb8>
10000cc0:	00002737          	lui	a4,0x2
10000cc4:	80970713          	addi	a4,a4,-2039 # 1809 <_fstack+0x1409>
10000cc8:	00e7a023          	sw	a4,0(a5)
10000ccc:	260007b7          	lui	a5,0x26000
10000cd0:	00100713          	li	a4,1
10000cd4:	00e7a023          	sw	a4,0(a5) # 26000000 <_erodata+0x15ffef00>
10000cd8:	00000013          	nop
10000cdc:	260007b7          	lui	a5,0x26000
10000ce0:	0007a703          	lw	a4,0(a5) # 26000000 <_erodata+0x15ffef00>
10000ce4:	00100793          	li	a5,1
10000ce8:	fef70ae3          	beq	a4,a5,10000cdc <configure_io+0x304>
10000cec:	00000013          	nop
10000cf0:	00000013          	nop
10000cf4:	00c12083          	lw	ra,12(sp)
10000cf8:	00812403          	lw	s0,8(sp)
10000cfc:	01010113          	addi	sp,sp,16
10000d00:	00008067          	ret

10000d04 <delay>:
10000d04:	fe010113          	addi	sp,sp,-32
10000d08:	00112e23          	sw	ra,28(sp)
10000d0c:	00812c23          	sw	s0,24(sp)
10000d10:	02010413          	addi	s0,sp,32
10000d14:	fea42623          	sw	a0,-20(s0)
10000d18:	f00057b7          	lui	a5,0xf0005
10000d1c:	00878793          	addi	a5,a5,8 # f0005008 <_erodata+0xe0003f08>
10000d20:	0007a023          	sw	zero,0(a5)
10000d24:	f00057b7          	lui	a5,0xf0005
10000d28:	fec42703          	lw	a4,-20(s0)
10000d2c:	00e7a023          	sw	a4,0(a5) # f0005000 <_erodata+0xe0003f00>
10000d30:	f00057b7          	lui	a5,0xf0005
10000d34:	00878793          	addi	a5,a5,8 # f0005008 <_erodata+0xe0003f08>
10000d38:	00100713          	li	a4,1
10000d3c:	00e7a023          	sw	a4,0(a5)
10000d40:	f00057b7          	lui	a5,0xf0005
10000d44:	00c78793          	addi	a5,a5,12 # f000500c <_erodata+0xe0003f0c>
10000d48:	00100713          	li	a4,1
10000d4c:	00e7a023          	sw	a4,0(a5)
10000d50:	0140006f          	j	10000d64 <delay+0x60>
10000d54:	f00057b7          	lui	a5,0xf0005
10000d58:	00c78793          	addi	a5,a5,12 # f000500c <_erodata+0xe0003f0c>
10000d5c:	00100713          	li	a4,1
10000d60:	00e7a023          	sw	a4,0(a5)
10000d64:	f00057b7          	lui	a5,0xf0005
10000d68:	01078793          	addi	a5,a5,16 # f0005010 <_erodata+0xe0003f10>
10000d6c:	0007a783          	lw	a5,0(a5)
10000d70:	fe0792e3          	bnez	a5,10000d54 <delay+0x50>
10000d74:	00000013          	nop
10000d78:	00000013          	nop
10000d7c:	01c12083          	lw	ra,28(sp)
10000d80:	01812403          	lw	s0,24(sp)
10000d84:	02010113          	addi	sp,sp,32
10000d88:	00008067          	ret

10000d8c <main>:
10000d8c:	ff010113          	addi	sp,sp,-16
10000d90:	00112623          	sw	ra,12(sp)
10000d94:	00812423          	sw	s0,8(sp)
10000d98:	01010413          	addi	s0,sp,16
10000d9c:	f00037b7          	lui	a5,0xf0003
10000da0:	80078793          	addi	a5,a5,-2048 # f0002800 <_erodata+0xe0001700>
10000da4:	00100713          	li	a4,1
10000da8:	00e7a023          	sw	a4,0(a5)
10000dac:	f00037b7          	lui	a5,0xf0003
10000db0:	80478793          	addi	a5,a5,-2044 # f0002804 <_erodata+0xe0001704>
10000db4:	0007a023          	sw	zero,0(a5)
10000db8:	f00037b7          	lui	a5,0xf0003
10000dbc:	80878793          	addi	a5,a5,-2040 # f0002808 <_erodata+0xe0001708>
10000dc0:	00100713          	li	a4,1
10000dc4:	00e7a023          	sw	a4,0(a5)
10000dc8:	f00037b7          	lui	a5,0xf0003
10000dcc:	80c78793          	addi	a5,a5,-2036 # f000280c <_erodata+0xe000170c>
10000dd0:	00100713          	li	a4,1
10000dd4:	00e7a023          	sw	a4,0(a5)
10000dd8:	c01ff0ef          	jal	100009d8 <configure_io>
10000ddc:	f00067b7          	lui	a5,0xf0006
10000de0:	00100713          	li	a4,1
10000de4:	00e7a023          	sw	a4,0(a5) # f0006000 <_erodata+0xe0004f00>
10000de8:	f00037b7          	lui	a5,0xf0003
10000dec:	00c78713          	addi	a4,a5,12 # f000300c <_erodata+0xe0001f0c>
10000df0:	00000793          	li	a5,0
10000df4:	00f72023          	sw	a5,0(a4)
10000df8:	f0003737          	lui	a4,0xf0003
10000dfc:	01c70713          	addi	a4,a4,28 # f000301c <_erodata+0xe0001f1c>
10000e00:	00f72023          	sw	a5,0(a4)
10000e04:	f00037b7          	lui	a5,0xf0003
10000e08:	00878713          	addi	a4,a5,8 # f0003008 <_erodata+0xe0001f08>
10000e0c:	00000793          	li	a5,0
10000e10:	00f72023          	sw	a5,0(a4)
10000e14:	f0003737          	lui	a4,0xf0003
10000e18:	01870713          	addi	a4,a4,24 # f0003018 <_erodata+0xe0001f18>
10000e1c:	00f72023          	sw	a5,0(a4)
10000e20:	f00037b7          	lui	a5,0xf0003
10000e24:	00478713          	addi	a4,a5,4 # f0003004 <_erodata+0xe0001f04>
10000e28:	00000793          	li	a5,0
10000e2c:	00f72023          	sw	a5,0(a4)
10000e30:	f0003737          	lui	a4,0xf0003
10000e34:	01470713          	addi	a4,a4,20 # f0003014 <_erodata+0xe0001f14>
10000e38:	00f72023          	sw	a5,0(a4)
10000e3c:	f0003737          	lui	a4,0xf0003
10000e40:	00000793          	li	a5,0
10000e44:	00f72023          	sw	a5,0(a4) # f0003000 <_erodata+0xe0001f00>
10000e48:	f0003737          	lui	a4,0xf0003
10000e4c:	01070713          	addi	a4,a4,16 # f0003010 <_erodata+0xe0001f10>
10000e50:	00f72023          	sw	a5,0(a4)
10000e54:	100017b7          	lui	a5,0x10001
10000e58:	01c78513          	addi	a0,a5,28 # 1000101c <_etext+0x1c>
10000e5c:	c54ff0ef          	jal	100002b0 <print>
10000e60:	f00037b7          	lui	a5,0xf0003
10000e64:	81478793          	addi	a5,a5,-2028 # f0002814 <_erodata+0xe0001714>
10000e68:	00100713          	li	a4,1
10000e6c:	00e7a023          	sw	a4,0(a5)
10000e70:	260007b7          	lui	a5,0x26000
10000e74:	00c78793          	addi	a5,a5,12 # 2600000c <_erodata+0x15ffef0c>
10000e78:	0007a023          	sw	zero,0(a5)
10000e7c:	260007b7          	lui	a5,0x26000
10000e80:	01078793          	addi	a5,a5,16 # 26000010 <_erodata+0x15ffef10>
10000e84:	0007a023          	sw	zero,0(a5)
10000e88:	007a17b7          	lui	a5,0x7a1
10000e8c:	20078513          	addi	a0,a5,512 # 7a1200 <_fstack+0x7a0e00>
10000e90:	e75ff0ef          	jal	10000d04 <delay>
10000e94:	f00037b7          	lui	a5,0xf0003
10000e98:	81478793          	addi	a5,a5,-2028 # f0002814 <_erodata+0xe0001714>
10000e9c:	0007a023          	sw	zero,0(a5)
10000ea0:	260007b7          	lui	a5,0x26000
10000ea4:	01078793          	addi	a5,a5,16 # 26000010 <_erodata+0x15ffef10>
10000ea8:	03f00713          	li	a4,63
10000eac:	00e7a023          	sw	a4,0(a5)
10000eb0:	260007b7          	lui	a5,0x26000
10000eb4:	00c78793          	addi	a5,a5,12 # 2600000c <_erodata+0x15ffef0c>
10000eb8:	fff00713          	li	a4,-1
10000ebc:	00e7a023          	sw	a4,0(a5)
10000ec0:	000c37b7          	lui	a5,0xc3
10000ec4:	50078513          	addi	a0,a5,1280 # c3500 <_fstack+0xc3100>
10000ec8:	e3dff0ef          	jal	10000d04 <delay>
10000ecc:	f00037b7          	lui	a5,0xf0003
10000ed0:	81478793          	addi	a5,a5,-2028 # f0002814 <_erodata+0xe0001714>
10000ed4:	00100713          	li	a4,1
10000ed8:	00e7a023          	sw	a4,0(a5)
10000edc:	260007b7          	lui	a5,0x26000
10000ee0:	00c78793          	addi	a5,a5,12 # 2600000c <_erodata+0x15ffef0c>
10000ee4:	0007a023          	sw	zero,0(a5)
10000ee8:	260007b7          	lui	a5,0x26000
10000eec:	01078793          	addi	a5,a5,16 # 26000010 <_erodata+0x15ffef10>
10000ef0:	0007a023          	sw	zero,0(a5)
10000ef4:	000c37b7          	lui	a5,0xc3
10000ef8:	50078513          	addi	a0,a5,1280 # c3500 <_fstack+0xc3100>
10000efc:	e09ff0ef          	jal	10000d04 <delay>
10000f00:	f00037b7          	lui	a5,0xf0003
10000f04:	81478793          	addi	a5,a5,-2028 # f0002814 <_erodata+0xe0001714>
10000f08:	0007a023          	sw	zero,0(a5)
10000f0c:	260007b7          	lui	a5,0x26000
10000f10:	01078793          	addi	a5,a5,16 # 26000010 <_erodata+0x15ffef10>
10000f14:	03f00713          	li	a4,63
10000f18:	00e7a023          	sw	a4,0(a5)
10000f1c:	260007b7          	lui	a5,0x26000
10000f20:	00c78793          	addi	a5,a5,12 # 2600000c <_erodata+0x15ffef0c>
10000f24:	fff00713          	li	a4,-1
10000f28:	00e7a023          	sw	a4,0(a5)
10000f2c:	000c37b7          	lui	a5,0xc3
10000f30:	50078513          	addi	a0,a5,1280 # c3500 <_fstack+0xc3100>
10000f34:	dd1ff0ef          	jal	10000d04 <delay>
10000f38:	f00037b7          	lui	a5,0xf0003
10000f3c:	81478793          	addi	a5,a5,-2028 # f0002814 <_erodata+0xe0001714>
10000f40:	00100713          	li	a4,1
10000f44:	00e7a023          	sw	a4,0(a5)
10000f48:	260007b7          	lui	a5,0x26000
10000f4c:	00c78793          	addi	a5,a5,12 # 2600000c <_erodata+0x15ffef0c>
10000f50:	0007a023          	sw	zero,0(a5)
10000f54:	260007b7          	lui	a5,0x26000
10000f58:	01078793          	addi	a5,a5,16 # 26000010 <_erodata+0x15ffef10>
10000f5c:	0007a023          	sw	zero,0(a5)
10000f60:	007a17b7          	lui	a5,0x7a1
10000f64:	20078513          	addi	a0,a5,512 # 7a1200 <_fstack+0x7a0e00>
10000f68:	d9dff0ef          	jal	10000d04 <delay>
10000f6c:	f00037b7          	lui	a5,0xf0003
10000f70:	81478793          	addi	a5,a5,-2028 # f0002814 <_erodata+0xe0001714>
10000f74:	0007a023          	sw	zero,0(a5)
10000f78:	260007b7          	lui	a5,0x26000
10000f7c:	01078793          	addi	a5,a5,16 # 26000010 <_erodata+0x15ffef10>
10000f80:	03f00713          	li	a4,63
10000f84:	00e7a023          	sw	a4,0(a5)
10000f88:	260007b7          	lui	a5,0x26000
10000f8c:	00c78793          	addi	a5,a5,12 # 2600000c <_erodata+0x15ffef0c>
10000f90:	fff00713          	li	a4,-1
10000f94:	00e7a023          	sw	a4,0(a5)
10000f98:	007a17b7          	lui	a5,0x7a1
10000f9c:	20078513          	addi	a0,a5,512 # 7a1200 <_fstack+0x7a0e00>
10000fa0:	d65ff0ef          	jal	10000d04 <delay>
10000fa4:	ebdff06f          	j	10000e60 <main+0xd4>
	...

Disassembly of section .rodata:

10001000 <_frodata>:
10001000:	3130                	.insn	2, 0x3130
10001002:	3332                	.insn	2, 0x3332
10001004:	3534                	.insn	2, 0x3534
10001006:	3736                	.insn	2, 0x3736
10001008:	3938                	.insn	2, 0x3938
1000100a:	6261                	.insn	2, 0x6261
1000100c:	66656463          	bltu	a0,t1,10001674 <_erodata+0x574>
10001010:	0000                	.insn	2, 0x
10001012:	0000                	.insn	2, 0x
10001014:	5245564f          	.insn	4, 0x5245564f
10001018:	0000                	.insn	2, 0x
1000101a:	0000                	.insn	2, 0x
1000101c:	6548                	.insn	2, 0x6548
1000101e:	6c6c                	.insn	2, 0x6c6c
10001020:	6f57206f          	j	10073f14 <_erodata+0x72e14>
10001024:	6c72                	.insn	2, 0x6c72
10001026:	2064                	.insn	2, 0x2064
10001028:	2121                	.insn	2, 0x2121
1000102a:	000a                	.insn	2, 0x000a
	...

Disassembly of section .riscv.attributes:

00000000 <.riscv.attributes>:
   0:	2841                	.insn	2, 0x2841
   2:	0000                	.insn	2, 0x
   4:	7200                	.insn	2, 0x7200
   6:	7369                	.insn	2, 0x7369
   8:	01007663          	bgeu	zero,a6,14 <_ebss+0xc>
   c:	001e                	.insn	2, 0x001e
   e:	0000                	.insn	2, 0x
  10:	1004                	.insn	2, 0x1004
  12:	7205                	.insn	2, 0x7205
  14:	3376                	.insn	2, 0x3376
  16:	6932                	.insn	2, 0x6932
  18:	7032                	.insn	2, 0x7032
  1a:	5f31                	.insn	2, 0x5f31
  1c:	697a                	.insn	2, 0x697a
  1e:	32727363          	bgeu	tp,t2,344 <_ebss+0x33c>
  22:	3070                	.insn	2, 0x3070
  24:	0800                	.insn	2, 0x0800
  26:	0a01                	.insn	2, 0x0a01
  28:	Address 0x28 is out of bounds.


Disassembly of section .comment:

00000000 <.comment>:
   0:	3a434347          	.insn	4, 0x3a434347
   4:	2820                	.insn	2, 0x2820
   6:	29554e47          	.insn	4, 0x29554e47
   a:	3120                	.insn	2, 0x3120
   c:	2e34                	.insn	2, 0x2e34
   e:	2e32                	.insn	2, 0x2e32
  10:	0030                	.insn	2, 0x0030
